target datalayout = "e-m:e-p270:32:32-p271:32:32-p272:64:64-i64:64-i128:128-f80:128-n8:16:32:64-S128"
target triple = "x86_64-unknown-linux-gnu"

%struct.MACAddr = type { [6 x i8] }

@.str.4 = private unnamed_addr constant [30 x i8] c"%02x:%02x:%02x:%02x:%02x:%02x\00", align 1

; Function Attrs: nounwind sspstrong uwtable
define internal void @get_mac(ptr noundef %obj, ptr noundef %v, ptr noundef %name, ptr noundef %opaque, ptr noundef %errp) #0 {
entry:
  %obj.addr = alloca ptr, align 8
  %v.addr = alloca ptr, align 8
  %name.addr = alloca ptr, align 8
  %opaque.addr = alloca ptr, align 8
  %errp.addr = alloca ptr, align 8
  %prop = alloca ptr, align 8
  %mac = alloca ptr, align 8
  %buffer = alloca [18 x i8], align 16
  %p = alloca ptr, align 8
  store ptr %obj, ptr %obj.addr, align 8
  store ptr %v, ptr %v.addr, align 8
  store ptr %name, ptr %name.addr, align 8
  store ptr %opaque, ptr %opaque.addr, align 8
  store ptr %errp, ptr %errp.addr, align 8
  %0 = load ptr, ptr %opaque.addr, align 8
  store ptr %0, ptr %prop, align 8
  %1 = load ptr, ptr %obj.addr, align 8
  %2 = load ptr, ptr %prop, align 8
  %call = call ptr @object_field_prop_ptr(ptr noundef %1, ptr noundef %2)
  store ptr %call, ptr %mac, align 8
  %arraydecay = getelementptr inbounds [18 x i8], ptr %buffer, i64 0, i64 0
  store ptr %arraydecay, ptr %p, align 8
  %arraydecay1 = getelementptr inbounds [18 x i8], ptr %buffer, i64 0, i64 0
  %3 = load ptr, ptr %mac, align 8
  %a = getelementptr inbounds %struct.MACAddr, ptr %3, i32 0, i32 0
  %arrayidx = getelementptr [6 x i8], ptr %a, i64 0, i64 0
  %4 = load i8, ptr %arrayidx, align 1
  %conv = zext i8 %4 to i32
  %5 = load ptr, ptr %mac, align 8
  %a2 = getelementptr inbounds %struct.MACAddr, ptr %5, i32 0, i32 0
  %arrayidx3 = getelementptr [6 x i8], ptr %a2, i64 0, i64 1
  %6 = load i8, ptr %arrayidx3, align 1
  %conv4 = zext i8 %6 to i32
  %7 = load ptr, ptr %mac, align 8
  %a5 = getelementptr inbounds %struct.MACAddr, ptr %7, i32 0, i32 0
  %arrayidx6 = getelementptr [6 x i8], ptr %a5, i64 0, i64 2
  %8 = load i8, ptr %arrayidx6, align 1
  %conv7 = zext i8 %8 to i32
  %9 = load ptr, ptr %mac, align 8
  %a8 = getelementptr inbounds %struct.MACAddr, ptr %9, i32 0, i32 0
  %arrayidx9 = getelementptr [6 x i8], ptr %a8, i64 0, i64 3
  %10 = load i8, ptr %arrayidx9, align 1
  %conv10 = zext i8 %10 to i32
  %11 = load ptr, ptr %mac, align 8
  %a11 = getelementptr inbounds %struct.MACAddr, ptr %11, i32 0, i32 0
  %arrayidx12 = getelementptr [6 x i8], ptr %a11, i64 0, i64 4
  %12 = load i8, ptr %arrayidx12, align 1
  %conv13 = zext i8 %12 to i32
  %13 = load ptr, ptr %mac, align 8
  %a14 = getelementptr inbounds %struct.MACAddr, ptr %13, i32 0, i32 0
  %arrayidx15 = getelementptr [6 x i8], ptr %a14, i64 0, i64 5
  %14 = load i8, ptr %arrayidx15, align 1
  %conv16 = zext i8 %14 to i32
  %call17 = call i32 (ptr, i64, ptr, ...) @snprintf(ptr noundef %arraydecay1, i64 noundef 18, ptr noundef @.str.4, i32 noundef %conv, i32 noundef %conv4, i32 noundef %conv7, i32 noundef %conv10, i32 noundef %conv13, i32 noundef %conv16) #7
  %15 = load ptr, ptr %v.addr, align 8
  %16 = load ptr, ptr %name.addr, align 8
  %17 = load ptr, ptr %errp.addr, align 8
  %call18 = call zeroext i1 @visit_type_str(ptr noundef %15, ptr noundef %16, ptr noundef %p, ptr noundef %17)
  ret void
}