; Function Attrs: nounwind sspstrong uwtable
define internal void @get_mac(ptr noundef %obj, ptr noundef %v, ptr noundef %name, ptr noundef %opaque, ptr noundef %errp) #0 {
entry:
  %buffer = alloca [18 x i8], align 16
  %p = alloca ptr, align 8
  %call = tail call ptr @object_field_prop_ptr(ptr noundef %obj, ptr noundef %opaque) #10
  store ptr %buffer, ptr %p, align 8
  %0 = load i8, ptr %call, align 1
  %conv = zext i8 %0 to i32
  %arrayidx3 = getelementptr i8, ptr %call, i64 1
  %1 = load i8, ptr %arrayidx3, align 1
  %conv4 = zext i8 %1 to i32
  %arrayidx6 = getelementptr i8, ptr %call, i64 2
  %2 = load i8, ptr %arrayidx6, align 1
  %conv7 = zext i8 %2 to i32
  %arrayidx9 = getelementptr i8, ptr %call, i64 3
  %3 = load i8, ptr %arrayidx9, align 1
  %conv10 = zext i8 %3 to i32
  %arrayidx12 = getelementptr i8, ptr %call, i64 4
  %4 = load i8, ptr %arrayidx12, align 1
  %conv13 = zext i8 %4 to i32
  %arrayidx15 = getelementptr i8, ptr %call, i64 5
  %5 = load i8, ptr %arrayidx15, align 1
  %conv16 = zext i8 %5 to i32
  %call17 = call i32 (ptr, i64, ptr, ...) @snprintf(ptr noundef nonnull dereferenceable(1) %buffer, i64 noundef 18, ptr noundef nonnull @.str.4, i32 noundef %conv, i32 noundef %conv4, i32 noundef %conv7, i32 noundef %conv10, i32 noundef %conv13, i32 noundef %conv16) #10
  %call18 = call zeroext i1 @visit_type_str(ptr noundef %v, ptr noundef %name, ptr noundef nonnull %p, ptr noundef %errp) #10
  ret void
}